
_main:

;MicroAlzaiemer.c,28 :: 		void main() {
;MicroAlzaiemer.c,31 :: 		Sound_init(& portc,3);
	MOVLW      PORTC+0
	MOVWF      FARG_Sound_Init_snd_port+0
	MOVLW      3
	MOVWF      FARG_Sound_Init_snd_pin+0
	CALL       _Sound_Init+0
;MicroAlzaiemer.c,32 :: 		TRISB=0XF1;
	MOVLW      241
	MOVWF      TRISB+0
;MicroAlzaiemer.c,33 :: 		TRISC=0;
	CLRF       TRISC+0
;MicroAlzaiemer.c,34 :: 		TRISD=0;
	CLRF       TRISD+0
;MicroAlzaiemer.c,35 :: 		TRISA=0;
	CLRF       TRISA+0
;MicroAlzaiemer.c,36 :: 		INTCON.GIE=1;// utiliser interruption
	BSF        INTCON+0, 7
;MicroAlzaiemer.c,37 :: 		INTCON.RBIE=1; //PORTB src interruption
	BSF        INTCON+0, 3
;MicroAlzaiemer.c,41 :: 		INTCON.INTE=1;
	BSF        INTCON+0, 4
;MicroAlzaiemer.c,42 :: 		option_reg.intedg=1;//RB0 transition de 0 a 1
	BSF        OPTION_REG+0, 6
;MicroAlzaiemer.c,46 :: 		Lcd_Init();                        // Initialize LCD
	CALL       _Lcd_Init+0
;MicroAlzaiemer.c,48 :: 		Lcd_Cmd(_LCD_CLEAR);               // Clear display
	MOVLW      1
	MOVWF      FARG_Lcd_Cmd_out_char+0
	CALL       _Lcd_Cmd+0
;MicroAlzaiemer.c,49 :: 		Lcd_Cmd(_LCD_CURSOR_OFF);          // Cursor off
	MOVLW      12
	MOVWF      FARG_Lcd_Cmd_out_char+0
	CALL       _Lcd_Cmd+0
;MicroAlzaiemer.c,50 :: 		Lcd_Out(1,1,"Anti Alzaimer SYS:");                 // Write text in first row
	MOVLW      1
	MOVWF      FARG_Lcd_Out_row+0
	MOVLW      1
	MOVWF      FARG_Lcd_Out_column+0
	MOVLW      ?lstr1_MicroAlzaiemer+0
	MOVWF      FARG_Lcd_Out_text+0
	CALL       _Lcd_Out+0
;MicroAlzaiemer.c,53 :: 		Delay_ms(1000);
	MOVLW      11
	MOVWF      R11+0
	MOVLW      38
	MOVWF      R12+0
	MOVLW      93
	MOVWF      R13+0
L_main0:
	DECFSZ     R13+0, 1
	GOTO       L_main0
	DECFSZ     R12+0, 1
	GOTO       L_main0
	DECFSZ     R11+0, 1
	GOTO       L_main0
	NOP
	NOP
;MicroAlzaiemer.c,54 :: 		Lcd_Cmd(_LCD_CLEAR);
	MOVLW      1
	MOVWF      FARG_Lcd_Cmd_out_char+0
	CALL       _Lcd_Cmd+0
;MicroAlzaiemer.c,55 :: 		Delay_ms(2000);
	MOVLW      21
	MOVWF      R11+0
	MOVLW      75
	MOVWF      R12+0
	MOVLW      190
	MOVWF      R13+0
L_main1:
	DECFSZ     R13+0, 1
	GOTO       L_main1
	DECFSZ     R12+0, 1
	GOTO       L_main1
	DECFSZ     R11+0, 1
	GOTO       L_main1
	NOP
;MicroAlzaiemer.c,56 :: 		Lcd_Out(1,1,"have a good Time !!!");
	MOVLW      1
	MOVWF      FARG_Lcd_Out_row+0
	MOVLW      1
	MOVWF      FARG_Lcd_Out_column+0
	MOVLW      ?lstr2_MicroAlzaiemer+0
	MOVWF      FARG_Lcd_Out_text+0
	CALL       _Lcd_Out+0
;MicroAlzaiemer.c,57 :: 		Delay_ms(2000);
	MOVLW      21
	MOVWF      R11+0
	MOVLW      75
	MOVWF      R12+0
	MOVLW      190
	MOVWF      R13+0
L_main2:
	DECFSZ     R13+0, 1
	GOTO       L_main2
	DECFSZ     R12+0, 1
	GOTO       L_main2
	DECFSZ     R11+0, 1
	GOTO       L_main2
	NOP
;MicroAlzaiemer.c,58 :: 		Lcd_Cmd(_LCD_CLEAR);
	MOVLW      1
	MOVWF      FARG_Lcd_Cmd_out_char+0
	CALL       _Lcd_Cmd+0
;MicroAlzaiemer.c,60 :: 		Lcd_Out(1,1,txt1);
	MOVLW      1
	MOVWF      FARG_Lcd_Out_row+0
	MOVLW      1
	MOVWF      FARG_Lcd_Out_column+0
	MOVLW      _txt1+0
	MOVWF      FARG_Lcd_Out_text+0
	CALL       _Lcd_Out+0
;MicroAlzaiemer.c,61 :: 		Lcd_Chr(2,8,233);
	MOVLW      2
	MOVWF      FARG_Lcd_Chr_row+0
	MOVLW      8
	MOVWF      FARG_Lcd_Chr_column+0
	MOVLW      233
	MOVWF      FARG_Lcd_Chr_out_char+0
	CALL       _Lcd_Chr+0
;MicroAlzaiemer.c,63 :: 		Lcd_Cmd(_LCD_CLEAR);
	MOVLW      1
	MOVWF      FARG_Lcd_Cmd_out_char+0
	CALL       _Lcd_Cmd+0
;MicroAlzaiemer.c,65 :: 		Lcd_Out(1,1,txt1);
	MOVLW      1
	MOVWF      FARG_Lcd_Out_row+0
	MOVLW      1
	MOVWF      FARG_Lcd_Out_column+0
	MOVLW      _txt1+0
	MOVWF      FARG_Lcd_Out_text+0
	CALL       _Lcd_Out+0
;MicroAlzaiemer.c,67 :: 		Delay_ms(1000);
	MOVLW      11
	MOVWF      R11+0
	MOVLW      38
	MOVWF      R12+0
	MOVLW      93
	MOVWF      R13+0
L_main3:
	DECFSZ     R13+0, 1
	GOTO       L_main3
	DECFSZ     R12+0, 1
	GOTO       L_main3
	DECFSZ     R11+0, 1
	GOTO       L_main3
	NOP
	NOP
;MicroAlzaiemer.c,70 :: 		ADCON1=0x0E;  //mettre tous les pines analogiques comme digital except ANO
	MOVLW      14
	MOVWF      ADCON1+0
;MicroAlzaiemer.c,75 :: 		TRISA.RA0=1; //RA0 comme entree
	BSF        TRISA+0, 0
;MicroAlzaiemer.c,77 :: 		ADC_Init();  //initialiser ADC
	CALL       _ADC_Init+0
;MicroAlzaiemer.c,79 :: 		Lcd_Init();                        // Initialize LCD
	CALL       _Lcd_Init+0
;MicroAlzaiemer.c,81 :: 		Lcd_Cmd(_LCD_CLEAR);               // Clear display
	MOVLW      1
	MOVWF      FARG_Lcd_Cmd_out_char+0
	CALL       _Lcd_Cmd+0
;MicroAlzaiemer.c,82 :: 		Lcd_Cmd(_LCD_CURSOR_OFF);          // Cursor off
	MOVLW      12
	MOVWF      FARG_Lcd_Cmd_out_char+0
	CALL       _Lcd_Cmd+0
;MicroAlzaiemer.c,84 :: 		Lcd_Cmd(_LCD_CLEAR);               // Clear display
	MOVLW      1
	MOVWF      FARG_Lcd_Cmd_out_char+0
	CALL       _Lcd_Cmd+0
;MicroAlzaiemer.c,86 :: 		Lcd_Out(1,1,txt1);
	MOVLW      1
	MOVWF      FARG_Lcd_Out_row+0
	MOVLW      1
	MOVWF      FARG_Lcd_Out_column+0
	MOVLW      _txt1+0
	MOVWF      FARG_Lcd_Out_text+0
	CALL       _Lcd_Out+0
;MicroAlzaiemer.c,87 :: 		Lcd_Chr(2,8,233);
	MOVLW      2
	MOVWF      FARG_Lcd_Chr_row+0
	MOVLW      8
	MOVWF      FARG_Lcd_Chr_column+0
	MOVLW      233
	MOVWF      FARG_Lcd_Chr_out_char+0
	CALL       _Lcd_Chr+0
;MicroAlzaiemer.c,88 :: 		Lcd_Chr(2,9,'C'); //ecrire 'C' comme celsuse
	MOVLW      2
	MOVWF      FARG_Lcd_Chr_row+0
	MOVLW      9
	MOVWF      FARG_Lcd_Chr_column+0
	MOVLW      67
	MOVWF      FARG_Lcd_Chr_out_char+0
	CALL       _Lcd_Chr+0
;MicroAlzaiemer.c,90 :: 		temperature =0;
	CLRF       _temperature+0
	CLRF       _temperature+1
;MicroAlzaiemer.c,91 :: 		do {
L_main4:
;MicroAlzaiemer.c,92 :: 		temperature=ADC_Read(0);//recuperer 10-bit resultante du AD conversions
	CLRF       FARG_ADC_Read_channel+0
	CALL       _ADC_Read+0
	MOVF       R0+0, 0
	MOVWF      _temperature+0
	MOVF       R0+1, 0
	MOVWF      _temperature+1
;MicroAlzaiemer.c,94 :: 		mV= temperature*5000.0/1024.0;
	CALL       _word2double+0
	MOVLW      0
	MOVWF      R4+0
	MOVLW      64
	MOVWF      R4+1
	MOVLW      28
	MOVWF      R4+2
	MOVLW      139
	MOVWF      R4+3
	CALL       _Mul_32x32_FP+0
	MOVLW      0
	MOVWF      R4+0
	MOVLW      0
	MOVWF      R4+1
	MOVLW      0
	MOVWF      R4+2
	MOVLW      137
	MOVWF      R4+3
	CALL       _Div_32x32_FP+0
	MOVF       R0+0, 0
	MOVWF      _mV+0
	MOVF       R0+1, 0
	MOVWF      _mV+1
	MOVF       R0+2, 0
	MOVWF      _mV+2
	MOVF       R0+3, 0
	MOVWF      _mV+3
;MicroAlzaiemer.c,96 :: 		mV=mV/10.0;
	MOVLW      0
	MOVWF      R4+0
	MOVLW      0
	MOVWF      R4+1
	MOVLW      32
	MOVWF      R4+2
	MOVLW      130
	MOVWF      R4+3
	CALL       _Div_32x32_FP+0
	MOVF       R0+0, 0
	MOVWF      _mV+0
	MOVF       R0+1, 0
	MOVWF      _mV+1
	MOVF       R0+2, 0
	MOVWF      _mV+2
	MOVF       R0+3, 0
	MOVWF      _mV+3
;MicroAlzaiemer.c,99 :: 		if (mv <= 9)
	MOVF       R0+0, 0
	MOVWF      R4+0
	MOVF       R0+1, 0
	MOVWF      R4+1
	MOVF       R0+2, 0
	MOVWF      R4+2
	MOVF       R0+3, 0
	MOVWF      R4+3
	MOVLW      0
	MOVWF      R0+0
	MOVLW      0
	MOVWF      R0+1
	MOVLW      16
	MOVWF      R0+2
	MOVLW      130
	MOVWF      R0+3
	CALL       _Compare_Double+0
	MOVLW      1
	BTFSS      STATUS+0, 0
	MOVLW      0
	MOVWF      R0+0
	MOVF       R0+0, 0
	BTFSC      STATUS+0, 2
	GOTO       L_main7
;MicroAlzaiemer.c,101 :: 		test1=0;
	CLRF       _test1+0
	CLRF       _test1+1
;MicroAlzaiemer.c,102 :: 		while (test1 ==0)
L_main8:
	MOVLW      0
	XORWF      _test1+1, 0
	BTFSS      STATUS+0, 2
	GOTO       L__main87
	MOVLW      0
	XORWF      _test1+0, 0
L__main87:
	BTFSS      STATUS+0, 2
	GOTO       L_main9
;MicroAlzaiemer.c,104 :: 		porta.ra2=1;
	BSF        PORTA+0, 2
;MicroAlzaiemer.c,105 :: 		delay_ms(500);
	MOVLW      6
	MOVWF      R11+0
	MOVLW      19
	MOVWF      R12+0
	MOVLW      173
	MOVWF      R13+0
L_main10:
	DECFSZ     R13+0, 1
	GOTO       L_main10
	DECFSZ     R12+0, 1
	GOTO       L_main10
	DECFSZ     R11+0, 1
	GOTO       L_main10
	NOP
	NOP
;MicroAlzaiemer.c,106 :: 		porta.ra2=0;
	BCF        PORTA+0, 2
;MicroAlzaiemer.c,107 :: 		porta.ra2=1;
	BSF        PORTA+0, 2
;MicroAlzaiemer.c,108 :: 		delay_ms(500);    //led rouge clignote 3 fois
	MOVLW      6
	MOVWF      R11+0
	MOVLW      19
	MOVWF      R12+0
	MOVLW      173
	MOVWF      R13+0
L_main11:
	DECFSZ     R13+0, 1
	GOTO       L_main11
	DECFSZ     R12+0, 1
	GOTO       L_main11
	DECFSZ     R11+0, 1
	GOTO       L_main11
	NOP
	NOP
;MicroAlzaiemer.c,109 :: 		porta.ra2=0;
	BCF        PORTA+0, 2
;MicroAlzaiemer.c,110 :: 		porta.ra2=1;
	BSF        PORTA+0, 2
;MicroAlzaiemer.c,111 :: 		delay_ms(500);
	MOVLW      6
	MOVWF      R11+0
	MOVLW      19
	MOVWF      R12+0
	MOVLW      173
	MOVWF      R13+0
L_main12:
	DECFSZ     R13+0, 1
	GOTO       L_main12
	DECFSZ     R12+0, 1
	GOTO       L_main12
	DECFSZ     R11+0, 1
	GOTO       L_main12
	NOP
	NOP
;MicroAlzaiemer.c,112 :: 		porta.ra2=0;
	BCF        PORTA+0, 2
;MicroAlzaiemer.c,113 :: 		test1=1;
	MOVLW      1
	MOVWF      _test1+0
	MOVLW      0
	MOVWF      _test1+1
;MicroAlzaiemer.c,114 :: 		}
	GOTO       L_main8
L_main9:
;MicroAlzaiemer.c,115 :: 		FloatToStr(mV,txt);
	MOVF       _mV+0, 0
	MOVWF      FARG_FloatToStr_fnum+0
	MOVF       _mV+1, 0
	MOVWF      FARG_FloatToStr_fnum+1
	MOVF       _mV+2, 0
	MOVWF      FARG_FloatToStr_fnum+2
	MOVF       _mV+3, 0
	MOVWF      FARG_FloatToStr_fnum+3
	MOVLW      _txt+0
	MOVWF      FARG_FloatToStr_str+0
	CALL       _FloatToStr+0
;MicroAlzaiemer.c,117 :: 		txt[4]=0;
	CLRF       _txt+4
;MicroAlzaiemer.c,118 :: 		Lcd_Out(2,3,txt);
	MOVLW      2
	MOVWF      FARG_Lcd_Out_row+0
	MOVLW      3
	MOVWF      FARG_Lcd_Out_column+0
	MOVLW      _txt+0
	MOVWF      FARG_Lcd_Out_text+0
	CALL       _Lcd_Out+0
;MicroAlzaiemer.c,120 :: 		Delay_ms(500);
	MOVLW      6
	MOVWF      R11+0
	MOVLW      19
	MOVWF      R12+0
	MOVLW      173
	MOVWF      R13+0
L_main13:
	DECFSZ     R13+0, 1
	GOTO       L_main13
	DECFSZ     R12+0, 1
	GOTO       L_main13
	DECFSZ     R11+0, 1
	GOTO       L_main13
	NOP
	NOP
;MicroAlzaiemer.c,122 :: 		}
	GOTO       L_main14
L_main7:
;MicroAlzaiemer.c,123 :: 		else if( mv <=39 && mv >9)
	MOVF       _mV+0, 0
	MOVWF      R4+0
	MOVF       _mV+1, 0
	MOVWF      R4+1
	MOVF       _mV+2, 0
	MOVWF      R4+2
	MOVF       _mV+3, 0
	MOVWF      R4+3
	MOVLW      0
	MOVWF      R0+0
	MOVLW      0
	MOVWF      R0+1
	MOVLW      28
	MOVWF      R0+2
	MOVLW      132
	MOVWF      R0+3
	CALL       _Compare_Double+0
	MOVLW      1
	BTFSS      STATUS+0, 0
	MOVLW      0
	MOVWF      R0+0
	MOVF       R0+0, 0
	BTFSC      STATUS+0, 2
	GOTO       L_main17
	MOVF       _mV+0, 0
	MOVWF      R4+0
	MOVF       _mV+1, 0
	MOVWF      R4+1
	MOVF       _mV+2, 0
	MOVWF      R4+2
	MOVF       _mV+3, 0
	MOVWF      R4+3
	MOVLW      0
	MOVWF      R0+0
	MOVLW      0
	MOVWF      R0+1
	MOVLW      16
	MOVWF      R0+2
	MOVLW      130
	MOVWF      R0+3
	CALL       _Compare_Double+0
	MOVLW      1
	BTFSC      STATUS+0, 0
	MOVLW      0
	MOVWF      R0+0
	MOVF       R0+0, 0
	BTFSC      STATUS+0, 2
	GOTO       L_main17
L__main76:
;MicroAlzaiemer.c,125 :: 		test2=0;
	CLRF       _test2+0
	CLRF       _test2+1
;MicroAlzaiemer.c,126 :: 		while (test2==0)
L_main18:
	MOVLW      0
	XORWF      _test2+1, 0
	BTFSS      STATUS+0, 2
	GOTO       L__main88
	MOVLW      0
	XORWF      _test2+0, 0
L__main88:
	BTFSS      STATUS+0, 2
	GOTO       L_main19
;MicroAlzaiemer.c,128 :: 		porta.ra1=1;
	BSF        PORTA+0, 1
;MicroAlzaiemer.c,129 :: 		delay_ms(1000);     //led vert allume pendant une seconde
	MOVLW      11
	MOVWF      R11+0
	MOVLW      38
	MOVWF      R12+0
	MOVLW      93
	MOVWF      R13+0
L_main20:
	DECFSZ     R13+0, 1
	GOTO       L_main20
	DECFSZ     R12+0, 1
	GOTO       L_main20
	DECFSZ     R11+0, 1
	GOTO       L_main20
	NOP
	NOP
;MicroAlzaiemer.c,130 :: 		porta.ra1=0;
	BCF        PORTA+0, 1
;MicroAlzaiemer.c,131 :: 		test2=1;
	MOVLW      1
	MOVWF      _test2+0
	MOVLW      0
	MOVWF      _test2+1
;MicroAlzaiemer.c,132 :: 		}
	GOTO       L_main18
L_main19:
;MicroAlzaiemer.c,134 :: 		FloatToStr(mV,txt);
	MOVF       _mV+0, 0
	MOVWF      FARG_FloatToStr_fnum+0
	MOVF       _mV+1, 0
	MOVWF      FARG_FloatToStr_fnum+1
	MOVF       _mV+2, 0
	MOVWF      FARG_FloatToStr_fnum+2
	MOVF       _mV+3, 0
	MOVWF      FARG_FloatToStr_fnum+3
	MOVLW      _txt+0
	MOVWF      FARG_FloatToStr_str+0
	CALL       _FloatToStr+0
;MicroAlzaiemer.c,136 :: 		txt[4]=0;
	CLRF       _txt+4
;MicroAlzaiemer.c,137 :: 		Lcd_Out(2,3,txt);
	MOVLW      2
	MOVWF      FARG_Lcd_Out_row+0
	MOVLW      3
	MOVWF      FARG_Lcd_Out_column+0
	MOVLW      _txt+0
	MOVWF      FARG_Lcd_Out_text+0
	CALL       _Lcd_Out+0
;MicroAlzaiemer.c,139 :: 		Delay_ms(1000);
	MOVLW      11
	MOVWF      R11+0
	MOVLW      38
	MOVWF      R12+0
	MOVLW      93
	MOVWF      R13+0
L_main21:
	DECFSZ     R13+0, 1
	GOTO       L_main21
	DECFSZ     R12+0, 1
	GOTO       L_main21
	DECFSZ     R11+0, 1
	GOTO       L_main21
	NOP
	NOP
;MicroAlzaiemer.c,141 :: 		}
	GOTO       L_main22
L_main17:
;MicroAlzaiemer.c,142 :: 		else if (mv > 39)
	MOVF       _mV+0, 0
	MOVWF      R4+0
	MOVF       _mV+1, 0
	MOVWF      R4+1
	MOVF       _mV+2, 0
	MOVWF      R4+2
	MOVF       _mV+3, 0
	MOVWF      R4+3
	MOVLW      0
	MOVWF      R0+0
	MOVLW      0
	MOVWF      R0+1
	MOVLW      28
	MOVWF      R0+2
	MOVLW      132
	MOVWF      R0+3
	CALL       _Compare_Double+0
	MOVLW      1
	BTFSC      STATUS+0, 0
	MOVLW      0
	MOVWF      R0+0
	MOVF       R0+0, 0
	BTFSC      STATUS+0, 2
	GOTO       L_main23
;MicroAlzaiemer.c,144 :: 		test3=0;
	CLRF       _test3+0
	CLRF       _test3+1
;MicroAlzaiemer.c,145 :: 		while (test3 ==0)
L_main24:
	MOVLW      0
	XORWF      _test3+1, 0
	BTFSS      STATUS+0, 2
	GOTO       L__main89
	MOVLW      0
	XORWF      _test3+0, 0
L__main89:
	BTFSS      STATUS+0, 2
	GOTO       L_main25
;MicroAlzaiemer.c,147 :: 		porta.ra3=1;
	BSF        PORTA+0, 3
;MicroAlzaiemer.c,148 :: 		delay_ms(1000);     //led bleu allume pendant une seconde
	MOVLW      11
	MOVWF      R11+0
	MOVLW      38
	MOVWF      R12+0
	MOVLW      93
	MOVWF      R13+0
L_main26:
	DECFSZ     R13+0, 1
	GOTO       L_main26
	DECFSZ     R12+0, 1
	GOTO       L_main26
	DECFSZ     R11+0, 1
	GOTO       L_main26
	NOP
	NOP
;MicroAlzaiemer.c,149 :: 		porta.ra3=0;
	BCF        PORTA+0, 3
;MicroAlzaiemer.c,150 :: 		test3=1;
	MOVLW      1
	MOVWF      _test3+0
	MOVLW      0
	MOVWF      _test3+1
;MicroAlzaiemer.c,151 :: 		}
	GOTO       L_main24
L_main25:
;MicroAlzaiemer.c,152 :: 		FloatToStr(mV,txt);
	MOVF       _mV+0, 0
	MOVWF      FARG_FloatToStr_fnum+0
	MOVF       _mV+1, 0
	MOVWF      FARG_FloatToStr_fnum+1
	MOVF       _mV+2, 0
	MOVWF      FARG_FloatToStr_fnum+2
	MOVF       _mV+3, 0
	MOVWF      FARG_FloatToStr_fnum+3
	MOVLW      _txt+0
	MOVWF      FARG_FloatToStr_str+0
	CALL       _FloatToStr+0
;MicroAlzaiemer.c,154 :: 		txt[4]=0;
	CLRF       _txt+4
;MicroAlzaiemer.c,155 :: 		Lcd_Out(2,3,txt);
	MOVLW      2
	MOVWF      FARG_Lcd_Out_row+0
	MOVLW      3
	MOVWF      FARG_Lcd_Out_column+0
	MOVLW      _txt+0
	MOVWF      FARG_Lcd_Out_text+0
	CALL       _Lcd_Out+0
;MicroAlzaiemer.c,157 :: 		Delay_ms(1000);
	MOVLW      11
	MOVWF      R11+0
	MOVLW      38
	MOVWF      R12+0
	MOVLW      93
	MOVWF      R13+0
L_main27:
	DECFSZ     R13+0, 1
	GOTO       L_main27
	DECFSZ     R12+0, 1
	GOTO       L_main27
	DECFSZ     R11+0, 1
	GOTO       L_main27
	NOP
	NOP
;MicroAlzaiemer.c,160 :: 		}
L_main23:
L_main22:
L_main14:
;MicroAlzaiemer.c,162 :: 		FloatToStr(mV,txt);
	MOVF       _mV+0, 0
	MOVWF      FARG_FloatToStr_fnum+0
	MOVF       _mV+1, 0
	MOVWF      FARG_FloatToStr_fnum+1
	MOVF       _mV+2, 0
	MOVWF      FARG_FloatToStr_fnum+2
	MOVF       _mV+3, 0
	MOVWF      FARG_FloatToStr_fnum+3
	MOVLW      _txt+0
	MOVWF      FARG_FloatToStr_str+0
	CALL       _FloatToStr+0
;MicroAlzaiemer.c,164 :: 		txt[4]=0;
	CLRF       _txt+4
;MicroAlzaiemer.c,165 :: 		Lcd_Out(2,3,txt);
	MOVLW      2
	MOVWF      FARG_Lcd_Out_row+0
	MOVLW      3
	MOVWF      FARG_Lcd_Out_column+0
	MOVLW      _txt+0
	MOVWF      FARG_Lcd_Out_text+0
	CALL       _Lcd_Out+0
;MicroAlzaiemer.c,167 :: 		Delay_ms(500);
	MOVLW      6
	MOVWF      R11+0
	MOVLW      19
	MOVWF      R12+0
	MOVLW      173
	MOVWF      R13+0
L_main28:
	DECFSZ     R13+0, 1
	GOTO       L_main28
	DECFSZ     R12+0, 1
	GOTO       L_main28
	DECFSZ     R11+0, 1
	GOTO       L_main28
	NOP
	NOP
;MicroAlzaiemer.c,169 :: 		} while(1);
	GOTO       L_main4
;MicroAlzaiemer.c,171 :: 		}
L_end_main:
	GOTO       $+0
; end of _main

_interrupt:
	MOVWF      R15+0
	SWAPF      STATUS+0, 0
	CLRF       STATUS+0
	MOVWF      ___saveSTATUS+0
	MOVF       PCLATH+0, 0
	MOVWF      ___savePCLATH+0
	CLRF       PCLATH+0

;MicroAlzaiemer.c,172 :: 		void interrupt()
;MicroAlzaiemer.c,175 :: 		if (INTCON.INTF==1) //changement sur RB0 0->1 --> intcon.intg=1 appel du flag
	BTFSS      INTCON+0, 1
	GOTO       L_interrupt29
;MicroAlzaiemer.c,177 :: 		Sound_Play(659, 250);//lorsque le malade appui sur l'alerte
	MOVLW      147
	MOVWF      FARG_Sound_Play_freq_in_hz+0
	MOVLW      2
	MOVWF      FARG_Sound_Play_freq_in_hz+1
	MOVLW      250
	MOVWF      FARG_Sound_Play_duration_ms+0
	CLRF       FARG_Sound_Play_duration_ms+1
	CALL       _Sound_Play+0
;MicroAlzaiemer.c,178 :: 		INTCON.INTF=0;
	BCF        INTCON+0, 1
;MicroAlzaiemer.c,179 :: 		porta.ra2=1;
	BSF        PORTA+0, 2
;MicroAlzaiemer.c,180 :: 		delay_ms(1000);
	MOVLW      11
	MOVWF      R11+0
	MOVLW      38
	MOVWF      R12+0
	MOVLW      93
	MOVWF      R13+0
L_interrupt30:
	DECFSZ     R13+0, 1
	GOTO       L_interrupt30
	DECFSZ     R12+0, 1
	GOTO       L_interrupt30
	DECFSZ     R11+0, 1
	GOTO       L_interrupt30
	NOP
	NOP
;MicroAlzaiemer.c,181 :: 		porta.ra2=0;
	BCF        PORTA+0, 2
;MicroAlzaiemer.c,182 :: 		porta.ra2=1;
	BSF        PORTA+0, 2
;MicroAlzaiemer.c,183 :: 		delay_ms(1000);    //led rouge clignote 3 fois pendant 3 secondes (alertes)
	MOVLW      11
	MOVWF      R11+0
	MOVLW      38
	MOVWF      R12+0
	MOVLW      93
	MOVWF      R13+0
L_interrupt31:
	DECFSZ     R13+0, 1
	GOTO       L_interrupt31
	DECFSZ     R12+0, 1
	GOTO       L_interrupt31
	DECFSZ     R11+0, 1
	GOTO       L_interrupt31
	NOP
	NOP
;MicroAlzaiemer.c,184 :: 		porta.ra2=0;
	BCF        PORTA+0, 2
;MicroAlzaiemer.c,185 :: 		porta.ra2=1;
	BSF        PORTA+0, 2
;MicroAlzaiemer.c,186 :: 		delay_ms(1000);
	MOVLW      11
	MOVWF      R11+0
	MOVLW      38
	MOVWF      R12+0
	MOVLW      93
	MOVWF      R13+0
L_interrupt32:
	DECFSZ     R13+0, 1
	GOTO       L_interrupt32
	DECFSZ     R12+0, 1
	GOTO       L_interrupt32
	DECFSZ     R11+0, 1
	GOTO       L_interrupt32
	NOP
	NOP
;MicroAlzaiemer.c,187 :: 		porta.ra2=0;
	BCF        PORTA+0, 2
;MicroAlzaiemer.c,188 :: 		}
L_interrupt29:
;MicroAlzaiemer.c,189 :: 		if (INTCON.RBIF==1)
	BTFSS      INTCON+0, 0
	GOTO       L_interrupt33
;MicroAlzaiemer.c,192 :: 		if (portb.rb4==1)
	BTFSS      PORTB+0, 4
	GOTO       L_interrupt34
;MicroAlzaiemer.c,195 :: 		while(portb.rb5!=1 && portb.rb4!=0)
L_interrupt35:
	BTFSC      PORTB+0, 5
	GOTO       L_interrupt36
	BTFSS      PORTB+0, 4
	GOTO       L_interrupt36
L__interrupt85:
;MicroAlzaiemer.c,198 :: 		portc.rc2=1;
	BSF        PORTC+0, 2
;MicroAlzaiemer.c,199 :: 		portc.rc1=0;
	BCF        PORTC+0, 1
;MicroAlzaiemer.c,200 :: 		porta.ra1=1;
	BSF        PORTA+0, 1
;MicroAlzaiemer.c,201 :: 		delay_ms(500);
	MOVLW      6
	MOVWF      R11+0
	MOVLW      19
	MOVWF      R12+0
	MOVLW      173
	MOVWF      R13+0
L_interrupt39:
	DECFSZ     R13+0, 1
	GOTO       L_interrupt39
	DECFSZ     R12+0, 1
	GOTO       L_interrupt39
	DECFSZ     R11+0, 1
	GOTO       L_interrupt39
	NOP
	NOP
;MicroAlzaiemer.c,202 :: 		porta.ra1=0;
	BCF        PORTA+0, 1
;MicroAlzaiemer.c,204 :: 		portc.rc2=0;
	BCF        PORTC+0, 2
;MicroAlzaiemer.c,205 :: 		portc.rc1=0;
	BCF        PORTC+0, 1
;MicroAlzaiemer.c,207 :: 		}
	GOTO       L_interrupt35
L_interrupt36:
;MicroAlzaiemer.c,209 :: 		INTCON.RBIF=0;
	BCF        INTCON+0, 0
;MicroAlzaiemer.c,210 :: 		}
	GOTO       L_interrupt40
L_interrupt34:
;MicroAlzaiemer.c,211 :: 		else if (portb.rb5==1 && portb.rb4==0)
	BTFSS      PORTB+0, 5
	GOTO       L_interrupt43
	BTFSC      PORTB+0, 4
	GOTO       L_interrupt43
L__interrupt84:
;MicroAlzaiemer.c,214 :: 		while(portb.rb5!=0 && portb.rb4!=1)
L_interrupt44:
	BTFSS      PORTB+0, 5
	GOTO       L_interrupt45
	BTFSC      PORTB+0, 4
	GOTO       L_interrupt45
L__interrupt83:
;MicroAlzaiemer.c,216 :: 		portc.rc2=0;
	BCF        PORTC+0, 2
;MicroAlzaiemer.c,217 :: 		portc.rc1=1;
	BSF        PORTC+0, 1
;MicroAlzaiemer.c,218 :: 		delay_ms(2000);
	MOVLW      21
	MOVWF      R11+0
	MOVLW      75
	MOVWF      R12+0
	MOVLW      190
	MOVWF      R13+0
L_interrupt48:
	DECFSZ     R13+0, 1
	GOTO       L_interrupt48
	DECFSZ     R12+0, 1
	GOTO       L_interrupt48
	DECFSZ     R11+0, 1
	GOTO       L_interrupt48
	NOP
;MicroAlzaiemer.c,219 :: 		portc.rc2=0;
	BCF        PORTC+0, 2
;MicroAlzaiemer.c,220 :: 		portc.rc1=0;
	BCF        PORTC+0, 1
;MicroAlzaiemer.c,222 :: 		}
	GOTO       L_interrupt44
L_interrupt45:
;MicroAlzaiemer.c,223 :: 		INTCON.RBIF=0;
	BCF        INTCON+0, 0
;MicroAlzaiemer.c,224 :: 		}
L_interrupt43:
L_interrupt40:
;MicroAlzaiemer.c,227 :: 		if (portb.rb6==1 && INTCON.INTF==0) //sortie avec payment
	BTFSS      PORTB+0, 6
	GOTO       L_interrupt51
	BTFSC      INTCON+0, 1
	GOTO       L_interrupt51
L__interrupt82:
;MicroAlzaiemer.c,228 :: 		{ while(portb.rb7!=1 && portb.rb6!=0)
L_interrupt52:
	BTFSC      PORTB+0, 7
	GOTO       L_interrupt53
	BTFSS      PORTB+0, 6
	GOTO       L_interrupt53
L__interrupt81:
;MicroAlzaiemer.c,231 :: 		portc.rc5=1;
	BSF        PORTC+0, 5
;MicroAlzaiemer.c,232 :: 		portc.rc4=0;
	BCF        PORTC+0, 4
;MicroAlzaiemer.c,233 :: 		porta.ra1=1;
	BSF        PORTA+0, 1
;MicroAlzaiemer.c,234 :: 		delay_ms(1000);
	MOVLW      11
	MOVWF      R11+0
	MOVLW      38
	MOVWF      R12+0
	MOVLW      93
	MOVWF      R13+0
L_interrupt56:
	DECFSZ     R13+0, 1
	GOTO       L_interrupt56
	DECFSZ     R12+0, 1
	GOTO       L_interrupt56
	DECFSZ     R11+0, 1
	GOTO       L_interrupt56
	NOP
	NOP
;MicroAlzaiemer.c,235 :: 		porta.ra1=0;
	BCF        PORTA+0, 1
;MicroAlzaiemer.c,236 :: 		portc.rc5=0;
	BCF        PORTC+0, 5
;MicroAlzaiemer.c,237 :: 		portc.rc4=0;
	BCF        PORTC+0, 4
;MicroAlzaiemer.c,240 :: 		}
	GOTO       L_interrupt52
L_interrupt53:
;MicroAlzaiemer.c,241 :: 		INTCON.RBIF=0;
	BCF        INTCON+0, 0
;MicroAlzaiemer.c,242 :: 		}
	GOTO       L_interrupt57
L_interrupt51:
;MicroAlzaiemer.c,243 :: 		else if (portb.rb6==1 && INTCON.INTF==1) // //capt3 and BUZZEUR=1
	BTFSS      PORTB+0, 6
	GOTO       L_interrupt60
	BTFSS      INTCON+0, 1
	GOTO       L_interrupt60
L__interrupt80:
;MicroAlzaiemer.c,244 :: 		{ while(portb.rb7!=0 && portb.rb6!=1)
L_interrupt61:
	BTFSS      PORTB+0, 7
	GOTO       L_interrupt62
	BTFSC      PORTB+0, 6
	GOTO       L_interrupt62
L__interrupt79:
;MicroAlzaiemer.c,247 :: 		portc.rc5=0;
	BCF        PORTC+0, 5
;MicroAlzaiemer.c,248 :: 		portc.rc4=1;
	BSF        PORTC+0, 4
;MicroAlzaiemer.c,249 :: 		delay_us(1000);
	MOVLW      3
	MOVWF      R12+0
	MOVLW      151
	MOVWF      R13+0
L_interrupt65:
	DECFSZ     R13+0, 1
	GOTO       L_interrupt65
	DECFSZ     R12+0, 1
	GOTO       L_interrupt65
	NOP
	NOP
;MicroAlzaiemer.c,250 :: 		portc.rc5=0;
	BCF        PORTC+0, 5
;MicroAlzaiemer.c,251 :: 		portc.rc4=0;
	BCF        PORTC+0, 4
;MicroAlzaiemer.c,256 :: 		}
	GOTO       L_interrupt61
L_interrupt62:
;MicroAlzaiemer.c,257 :: 		porta.ra2=1;
	BSF        PORTA+0, 2
;MicroAlzaiemer.c,258 :: 		delay_ms(3000);
	MOVLW      31
	MOVWF      R11+0
	MOVLW      113
	MOVWF      R12+0
	MOVLW      30
	MOVWF      R13+0
L_interrupt66:
	DECFSZ     R13+0, 1
	GOTO       L_interrupt66
	DECFSZ     R12+0, 1
	GOTO       L_interrupt66
	DECFSZ     R11+0, 1
	GOTO       L_interrupt66
	NOP
;MicroAlzaiemer.c,259 :: 		porta.ra2=0;
	BCF        PORTA+0, 2
;MicroAlzaiemer.c,260 :: 		INTCON.RBIF=0;
	BCF        INTCON+0, 0
;MicroAlzaiemer.c,261 :: 		}
	GOTO       L_interrupt67
L_interrupt60:
;MicroAlzaiemer.c,262 :: 		else if (portb.rb7==1 && portb.rb6==0)
	BTFSS      PORTB+0, 7
	GOTO       L_interrupt70
	BTFSC      PORTB+0, 6
	GOTO       L_interrupt70
L__interrupt78:
;MicroAlzaiemer.c,265 :: 		while(portb.rb7!=0 && portb.rb6!=1)
L_interrupt71:
	BTFSS      PORTB+0, 7
	GOTO       L_interrupt72
	BTFSC      PORTB+0, 6
	GOTO       L_interrupt72
L__interrupt77:
;MicroAlzaiemer.c,267 :: 		portc.rc5=0;
	BCF        PORTC+0, 5
;MicroAlzaiemer.c,268 :: 		portc.rc4=1;
	BSF        PORTC+0, 4
;MicroAlzaiemer.c,269 :: 		delay_us(1000);
	MOVLW      3
	MOVWF      R12+0
	MOVLW      151
	MOVWF      R13+0
L_interrupt75:
	DECFSZ     R13+0, 1
	GOTO       L_interrupt75
	DECFSZ     R12+0, 1
	GOTO       L_interrupt75
	NOP
	NOP
;MicroAlzaiemer.c,270 :: 		portc.rc5=0;
	BCF        PORTC+0, 5
;MicroAlzaiemer.c,271 :: 		portc.rc4=0;
	BCF        PORTC+0, 4
;MicroAlzaiemer.c,272 :: 		}
	GOTO       L_interrupt71
L_interrupt72:
;MicroAlzaiemer.c,273 :: 		INTCON.RBIF=0;
	BCF        INTCON+0, 0
;MicroAlzaiemer.c,274 :: 		}
L_interrupt70:
L_interrupt67:
L_interrupt57:
;MicroAlzaiemer.c,276 :: 		}
L_interrupt33:
;MicroAlzaiemer.c,280 :: 		}
L_end_interrupt:
L__interrupt91:
	MOVF       ___savePCLATH+0, 0
	MOVWF      PCLATH+0
	SWAPF      ___saveSTATUS+0, 0
	MOVWF      STATUS+0
	SWAPF      R15+0, 1
	SWAPF      R15+0, 0
	RETFIE
; end of _interrupt
